; Function Attrs: mustprogress uwtable
define hidden void @_ZN3euf6solver14set_eliminatedEj(ptr nocapture noundef nonnull readonly align 8 dereferenceable(9136) %this, i32 noundef %v) unnamed_addr #3 align 2 {
entry:
  %si = getelementptr inbounds i8, ptr %this, i64 144
  %0 = load ptr, ptr %si, align 8
  %shl.i = shl i32 %v, 1
  %vtable = load ptr, ptr %0, align 8
  %vfn = getelementptr inbounds i8, ptr %vtable, i64 72
  %1 = load ptr, ptr %vfn, align 8
  tail call void %1(ptr noundef nonnull align 8 dereferenceable(8) %0, i32 %shl.i)
  %2 = load ptr, ptr %si, align 8
  %add.i = or disjoint i32 %shl.i, 1
  %vtable5 = load ptr, ptr %2, align 8
  %vfn6 = getelementptr inbounds i8, ptr %vtable5, i64 72
  %3 = load ptr, ptr %vfn6, align 8
  tail call void %3(ptr noundef nonnull align 8 dereferenceable(8) %2, i32 %add.i)
  ret void
}